target datalayout = "e-m:e-p270:32:32-p271:32:32-p272:64:64-i64:64-i128:128-f80:128-n8:16:32:64-S128"
target triple = "x86_64-pc-linux-gnu"

%"class.clang::SourceLocation" = type { i32 }
%"class.clang::TypeLoc" = type { ptr, ptr }
%"class.clang::CXXScopeSpec" = type { %"class.clang::SourceRange", %"class.clang::NestedNameSpecifierLocBuilder", %"class.llvm::ArrayRef" }
%"class.clang::SourceRange" = type { %"class.clang::SourceLocation", %"class.clang::SourceLocation" }
%"class.clang::NestedNameSpecifierLocBuilder" = type { ptr, ptr, i32, i32 }
%"class.llvm::ArrayRef" = type { ptr, i64 }

; Function Attrs: mustprogress nounwind uwtable
define linkonce_odr hidden void @_ZN5clang11SourceRange6setEndENS_14SourceLocationE(ptr noundef nonnull align 4 dereferenceable(8) %0, i32 %1) #0 comdat align 2 {
  %3 = alloca %"class.clang::SourceLocation", align 4
  %4 = alloca ptr, align 8
  %5 = getelementptr inbounds nuw %"class.clang::SourceLocation", ptr %3, i32 0, i32 0
  store i32 %1, ptr %5, align 4
  store ptr %0, ptr %4, align 8
  %6 = load ptr, ptr %4, align 8
  %7 = getelementptr inbounds nuw %"class.clang::SourceRange", ptr %6, i32 0, i32 1
  call void @llvm.memcpy.p0.p0.i64(ptr align 4 %7, ptr align 4 %3, i64 4, i1 false)
  ret void
}

; Function Attrs: mustprogress nounwind uwtable
define linkonce_odr hidden void @_ZN5clang11SourceRange8setBeginENS_14SourceLocationE(ptr noundef nonnull align 4 dereferenceable(8) %0, i32 %1) #0 comdat align 2 {
  %3 = alloca %"class.clang::SourceLocation", align 4
  %4 = alloca ptr, align 8
  %5 = getelementptr inbounds nuw %"class.clang::SourceLocation", ptr %3, i32 0, i32 0
  store i32 %1, ptr %5, align 4
  store ptr %0, ptr %4, align 8
  %6 = load ptr, ptr %4, align 8
  %7 = getelementptr inbounds nuw %"class.clang::SourceRange", ptr %6, i32 0, i32 0
  call void @llvm.memcpy.p0.p0.i64(ptr align 4 %7, ptr align 4 %3, i64 4, i1 false)
  ret void
}

; Function Attrs: mustprogress nounwind uwtable
define linkonce_odr hidden noundef zeroext i1 @_ZNK5clang14SourceLocation9isInvalidEv(ptr noundef nonnull align 4 dereferenceable(4) %0) #0 comdat align 2 {
  %2 = alloca ptr, align 8
  store ptr %0, ptr %2, align 8
  %3 = load ptr, ptr %2, align 8
  %4 = getelementptr inbounds nuw %"class.clang::SourceLocation", ptr %3, i32 0, i32 0
  %5 = load i32, ptr %4, align 4
  %6 = icmp eq i32 %5, 0
  ret i1 %6
}

; Function Attrs: mustprogress nounwind uwtable
define linkonce_odr hidden i32 @_ZNK5clang11SourceRange8getBeginEv(ptr noundef nonnull align 4 dereferenceable(8) %0) #0 comdat align 2 {
  %2 = alloca %"class.clang::SourceLocation", align 4
  %3 = alloca ptr, align 8
  store ptr %0, ptr %3, align 8
  %4 = load ptr, ptr %3, align 8
  %5 = getelementptr inbounds nuw %"class.clang::SourceRange", ptr %4, i32 0, i32 0
  call void @llvm.memcpy.p0.p0.i64(ptr align 4 %2, ptr align 4 %5, i64 4, i1 false)
  %6 = getelementptr inbounds nuw %"class.clang::SourceLocation", ptr %2, i32 0, i32 0
  %7 = load i32, ptr %6, align 4
  ret i32 %7
}

; Function Attrs: mustprogress nounwind uwtable
define dso_local void @_ZN5clang12CXXScopeSpec6ExtendERNS_10ASTContextENS_14SourceLocationENS_7TypeLocES3_(ptr noundef nonnull align 8 dereferenceable(48) %0, ptr noundef nonnull align 8 dereferenceable(23096) %1, i32 %2, ptr %3, ptr %4, i32 %5) #0 align 2 {
  %7 = alloca %"class.clang::SourceLocation", align 4
  %8 = alloca %"class.clang::TypeLoc", align 8
  %9 = alloca %"class.clang::SourceLocation", align 4
  %10 = alloca ptr, align 8
  %11 = alloca ptr, align 8
  %12 = alloca %"class.clang::SourceLocation", align 4
  %13 = alloca %"class.clang::TypeLoc", align 8
  %14 = alloca %"class.clang::SourceLocation", align 4
  %15 = alloca %"class.clang::SourceLocation", align 4
  %16 = alloca %"class.clang::SourceLocation", align 4
  %17 = alloca %"class.clang::SourceLocation", align 4
  %18 = getelementptr inbounds nuw %"class.clang::SourceLocation", ptr %7, i32 0, i32 0
  store i32 %2, ptr %18, align 4
  %19 = getelementptr inbounds nuw { ptr, ptr }, ptr %8, i32 0, i32 0
  store ptr %3, ptr %19, align 8
  %20 = getelementptr inbounds nuw { ptr, ptr }, ptr %8, i32 0, i32 1
  store ptr %4, ptr %20, align 8
  %21 = getelementptr inbounds nuw %"class.clang::SourceLocation", ptr %9, i32 0, i32 0
  store i32 %5, ptr %21, align 4
  store ptr %0, ptr %10, align 8
  store ptr %1, ptr %11, align 8
  %22 = load ptr, ptr %10, align 8
  %23 = getelementptr inbounds nuw %"class.clang::CXXScopeSpec", ptr %22, i32 0, i32 1
  %24 = load ptr, ptr %11, align 8
  call void @llvm.memcpy.p0.p0.i64(ptr align 4 %12, ptr align 4 %7, i64 4, i1 false)
  call void @llvm.memcpy.p0.p0.i64(ptr align 8 %13, ptr align 8 %8, i64 16, i1 false)
  call void @llvm.memcpy.p0.p0.i64(ptr align 4 %14, ptr align 4 %9, i64 4, i1 false)
  %25 = getelementptr inbounds nuw %"class.clang::SourceLocation", ptr %12, i32 0, i32 0
  %26 = load i32, ptr %25, align 4
  %27 = getelementptr inbounds nuw { ptr, ptr }, ptr %13, i32 0, i32 0
  %28 = load ptr, ptr %27, align 8
  %29 = getelementptr inbounds nuw { ptr, ptr }, ptr %13, i32 0, i32 1
  %30 = load ptr, ptr %29, align 8
  %31 = getelementptr inbounds nuw %"class.clang::SourceLocation", ptr %14, i32 0, i32 0
  %32 = load i32, ptr %31, align 4
  call void @_ZN5clang29NestedNameSpecifierLocBuilder6ExtendERNS_10ASTContextENS_14SourceLocationENS_7TypeLocES3_(ptr noundef nonnull align 8 dereferenceable(24) %23, ptr noundef nonnull align 8 dereferenceable(23096) %24, i32 %26, ptr %28, ptr %30, i32 %32)
  %33 = getelementptr inbounds nuw %"class.clang::CXXScopeSpec", ptr %22, i32 0, i32 0
  %34 = call i32 @_ZNK5clang11SourceRange8getBeginEv(ptr noundef nonnull align 4 dereferenceable(8) %33)
  %35 = getelementptr inbounds nuw %"class.clang::SourceLocation", ptr %15, i32 0, i32 0
  store i32 %34, ptr %35, align 4
  %36 = call noundef zeroext i1 @_ZNK5clang14SourceLocation9isInvalidEv(ptr noundef nonnull align 4 dereferenceable(4) %15)
  br i1 %36, label %37, label %43

37:                                               ; preds = %6
  %38 = getelementptr inbounds nuw %"class.clang::CXXScopeSpec", ptr %22, i32 0, i32 0
  %39 = call i32 @_ZNK5clang7TypeLoc11getBeginLocEv(ptr noundef nonnull align 8 dereferenceable(16) %8)
  %40 = getelementptr inbounds nuw %"class.clang::SourceLocation", ptr %16, i32 0, i32 0
  store i32 %39, ptr %40, align 4
  %41 = getelementptr inbounds nuw %"class.clang::SourceLocation", ptr %16, i32 0, i32 0
  %42 = load i32, ptr %41, align 4
  call void @_ZN5clang11SourceRange8setBeginENS_14SourceLocationE(ptr noundef nonnull align 4 dereferenceable(8) %38, i32 %42)
  br label %43

43:                                               ; preds = %37, %6
  %44 = getelementptr inbounds nuw %"class.clang::CXXScopeSpec", ptr %22, i32 0, i32 0
  call void @llvm.memcpy.p0.p0.i64(ptr align 4 %17, ptr align 4 %9, i64 4, i1 false)
  %45 = getelementptr inbounds nuw %"class.clang::SourceLocation", ptr %17, i32 0, i32 0
  %46 = load i32, ptr %45, align 4
  call void @_ZN5clang11SourceRange6setEndENS_14SourceLocationE(ptr noundef nonnull align 4 dereferenceable(8) %44, i32 %46)
  ret void
}