; Function Attrs: mustprogress nounwind uwtable
define dso_local void @_ZN5clang12CXXScopeSpec6ExtendERNS_10ASTContextENS_14SourceLocationENS_7TypeLocES3_(ptr noundef nonnull align 8 dereferenceable(48) %0, ptr noundef nonnull align 8 dereferenceable(23096) %1, i32 %2, ptr %3, ptr %4, i32 %5) local_unnamed_addr #2 align 2 {
  %7 = alloca %"class.clang::TypeLoc", align 8
  store ptr %3, ptr %7, align 8
  %8 = getelementptr inbounds nuw i8, ptr %7, i64 8
  store ptr %4, ptr %8, align 8
  %9 = getelementptr inbounds nuw i8, ptr %0, i64 8
  tail call void @_ZN5clang29NestedNameSpecifierLocBuilder6ExtendERNS_10ASTContextENS_14SourceLocationENS_7TypeLocES3_(ptr noundef nonnull align 8 dereferenceable(24) %9, ptr noundef nonnull align 8 dereferenceable(23096) %1, i32 %2, ptr %3, ptr %4, i32 %5) #21
  %.sroa.0.0.copyload.i = load i32, ptr %0, align 8
  %10 = icmp eq i32 %.sroa.0.0.copyload.i, 0
  br i1 %10, label %11, label %13

11:                                               ; preds = %6
  %12 = call i32 @_ZNK5clang7TypeLoc11getBeginLocEv(ptr noundef nonnull align 8 dereferenceable(16) %7) #21
  store i32 %12, ptr %0, align 8
  br label %13

13:                                               ; preds = %11, %6
  %14 = getelementptr inbounds nuw i8, ptr %0, i64 4
  store i32 %5, ptr %14, align 4
  ret void
}